(lp0
Vcjcsyp5
p1
aVcjcsyav
p2
aVcjcsvuq
p3
aVcjcsveq
p4
aVcjcnfje
p5
aVcjcnesu
p6
aVcjcn7mx
p7
aVcjctc20
p8
aVcjcter6
p9
aVcjcth69
p10
aVcjcth3r
p11
aVcjcth0e
p12
aVcjctlah
p13
aVcjctmhk
p14
aVcjctrxi
p15
aVcjcttb9
p16
aVcjctkdk
p17
aVcjctkbe
p18
aVcjcthah
p19
aVcjctau0
p20
aVcjctatf
p21
aVcjctarg
p22
aVcjctanq
p23
aVcjct56p
p24
aVcjct54d
p25
aVcjcsyk8
p26
aVcjcsvk0
p27
aVcjcnf45
p28
aVcjcn8h5
p29
aVcjdbav5
p30
a.