(lp0
Vcjcsyp5
p1
aVcjcsyav
p2
aVcjcsvuq
p3
aVcjcsveq
p4
aVcjcnfje
p5
aVcjcnesu
p6
aVcjcn7mx
p7
aVcjctc20
p8
aVcjcter6
p9
aVcjcth69
p10
aVcjcth3r
p11
aVcjcth0e
p12
aVcjctlah
p13
aVcjctmhk
p14
aVcjctrxi
p15
aVcjcttb9
p16
a.